; Function Attrs: null_pointer_is_valid sspstrong uwtable
define void @oid_both(ptr noundef %0, i32 noundef %1, ptr noundef captures(address) %2, ptr noundef writeonly captures(none) initializes((0, 8)) %3, ptr noundef writeonly captures(none) %4) local_unnamed_addr #0 {
  %6 = tail call ptr @oid_resolved(ptr noundef %0, i32 noundef %1, ptr noundef %2)
  store ptr %6, ptr %3, align 8
  %7 = icmp eq ptr %2, null
  %8 = icmp eq i32 %1, 0
  %or.cond.i.i = or i1 %8, %7
  br i1 %or.cond.i.i, label %9, label %11

9:                                                ; preds = %5
  %10 = tail call noalias ptr @wmem_strdup(ptr noundef %0, ptr noundef nonnull @.str.16)
  br label %oid_subid2string.exit

11:                                               ; preds = %5
  %12 = tail call noalias ptr @wmem_strbuf_new(ptr noundef %0, ptr noundef nonnull @.str.17)
  br label %13

13:                                               ; preds = %13, %11
  %.015.i.i = phi i32 [ %1, %11 ], [ %16, %13 ]
  %.014.i.i = phi ptr [ %2, %11 ], [ %14, %13 ]
  %14 = getelementptr i8, ptr %.014.i.i, i64 4
  %15 = load i32, ptr %.014.i.i, align 4
  tail call void (ptr, ptr, ...) @wmem_strbuf_append_printf(ptr noundef %12, ptr noundef nonnull @.str.18, i32 noundef %15)
  %16 = add i32 %.015.i.i, -1
  %.not.i.i = icmp eq i32 %16, 0
  br i1 %.not.i.i, label %17, label %13, !llvm.loop !6

17:                                               ; preds = %13
  %18 = tail call i64 @wmem_strbuf_get_len(ptr noundef %12)
  %19 = add i64 %18, -1
  tail call void @wmem_strbuf_truncate(ptr noundef %12, i64 noundef %19)
  %20 = tail call ptr @wmem_strbuf_finalize(ptr noundef %12)
  br label %oid_subid2string.exit

oid_subid2string.exit:                            ; preds = %9, %17
  %.0.i.i = phi ptr [ %10, %9 ], [ %20, %17 ]
  store ptr %.0.i.i, ptr %4, align 8
  ret void
}